target datalayout = "e-m:e-p270:32:32-p271:32:32-p272:64:64-i64:64-i128:128-f80:128-n8:16:32:64-S128"
target triple = "x86_64-pc-linux-gnu"

%struct.AppendState = type { %struct.PlanState, ptr, i32, i32, i8, ptr, i32, ptr, ptr, i32, i8, i32, ptr, ptr, i32, ptr, i64, ptr, i8, ptr, ptr, ptr }
%struct.PlanState = type { i32, ptr, ptr, ptr, ptr, ptr, ptr, ptr, ptr, ptr, ptr, ptr, ptr, ptr, ptr, ptr, ptr, ptr, i8, ptr, ptr, ptr, ptr, ptr, i8, i8, i8, i8, i8, i8, i8, i8 }
%struct.ParallelAppendState = type { %struct.LWLock, i32, [0 x i8] }
%struct.LWLock = type { i16, %struct.pg_atomic_uint32, %struct.proclist_head }
%struct.pg_atomic_uint32 = type { i32 }
%struct.proclist_head = type { i32, i32 }

; Function Attrs: nounwind uwtable
define dso_local void @ExecAppendReInitializeDSM(ptr noundef %0, ptr noundef %1) #0 {
  %3 = alloca ptr, align 8
  %4 = alloca ptr, align 8
  %5 = alloca ptr, align 8
  store ptr %0, ptr %3, align 8
  store ptr %1, ptr %4, align 8
  call void @llvm.lifetime.start.p0(i64 8, ptr %5) #6
  %6 = load ptr, ptr %3, align 8
  %7 = getelementptr inbounds nuw %struct.AppendState, ptr %6, i32 0, i32 15
  %8 = load ptr, ptr %7, align 8
  store ptr %8, ptr %5, align 8
  %9 = load ptr, ptr %5, align 8
  %10 = getelementptr inbounds nuw %struct.ParallelAppendState, ptr %9, i32 0, i32 1
  store i32 0, ptr %10, align 4
  %11 = load ptr, ptr %5, align 8
  %12 = getelementptr inbounds nuw %struct.ParallelAppendState, ptr %11, i32 0, i32 2
  %13 = getelementptr inbounds [0 x i8], ptr %12, i64 0, i64 0
  %14 = load ptr, ptr %3, align 8
  %15 = getelementptr inbounds nuw %struct.AppendState, ptr %14, i32 0, i32 2
  %16 = load i32, ptr %15, align 8
  %17 = sext i32 %16 to i64
  %18 = mul i64 1, %17
  call void @llvm.memset.p0.i64(ptr align 4 %13, i8 0, i64 %18, i1 false)
  call void @llvm.lifetime.end.p0(i64 8, ptr %5) #6
  ret void
}